target datalayout = "e-m:e-p270:32:32-p271:32:32-p272:64:64-i64:64-i128:128-f80:128-n8:16:32:64-S128"
target triple = "x86_64-pc-linux-gnu"

%class.Type = type <{ ptr, ptr, i32, [4 x i8] }>
%class.TypePtr.base = type <{ %class.Type.base, [4 x i8], ptr, i32, i32, i32 }>
%class.Type.base = type <{ ptr, ptr, i32 }>
%class.TypePtr = type <{ %class.Type.base, [4 x i8], ptr, i32, i32, i32, [4 x i8] }>
%class.TypeKlassPtr = type { %class.TypePtr.base, ptr, ptr }
%class.TypeAryKlassPtr = type { %class.TypeKlassPtr, ptr }

; Function Attrs: mustprogress nounwind uwtable
define linkonce_odr hidden noundef i32 @_ZNK4Type4baseEv(ptr noundef nonnull align 8 dereferenceable(20) %0) #1 comdat align 2 {
  %2 = alloca ptr, align 8
  store ptr %0, ptr %2, align 8
  %3 = load ptr, ptr %2, align 8
  %4 = getelementptr inbounds %class.Type, ptr %3, i32 0, i32 2
  %5 = load i32, ptr %4, align 8
  ret i32 %5
}

; Function Attrs: mustprogress nounwind uwtable
define hidden noundef zeroext i1 @_ZNK7TypePtr14eq_speculativeEPKS_(ptr noundef nonnull align 8 dereferenceable(44) %0, ptr noundef %1) #1 align 2 {
  %3 = alloca i1, align 1
  %4 = alloca ptr, align 8
  %5 = alloca ptr, align 8
  store ptr %0, ptr %4, align 8
  store ptr %1, ptr %5, align 8
  %6 = load ptr, ptr %4, align 8
  %7 = getelementptr inbounds %class.TypePtr, ptr %6, i32 0, i32 2
  %8 = load ptr, ptr %7, align 8
  %9 = icmp eq ptr %8, null
  br i1 %9, label %17, label %10

10:                                               ; preds = %2
  %11 = load ptr, ptr %5, align 8
  %12 = load ptr, ptr %11, align 8
  %13 = getelementptr inbounds ptr, ptr %12, i64 11
  %14 = load ptr, ptr %13, align 8
  %15 = call noundef ptr %14(ptr noundef nonnull align 8 dereferenceable(44) %11)
  %16 = icmp eq ptr %15, null
  br i1 %16, label %17, label %26

17:                                               ; preds = %10, %2
  %18 = getelementptr inbounds %class.TypePtr, ptr %6, i32 0, i32 2
  %19 = load ptr, ptr %18, align 8
  %20 = load ptr, ptr %5, align 8
  %21 = load ptr, ptr %20, align 8
  %22 = getelementptr inbounds ptr, ptr %21, i64 11
  %23 = load ptr, ptr %22, align 8
  %24 = call noundef ptr %23(ptr noundef nonnull align 8 dereferenceable(44) %20)
  %25 = icmp eq ptr %19, %24
  store i1 %25, ptr %3, align 1
  br label %50

26:                                               ; preds = %10
  %27 = getelementptr inbounds %class.TypePtr, ptr %6, i32 0, i32 2
  %28 = load ptr, ptr %27, align 8
  %29 = call noundef i32 @_ZNK4Type4baseEv(ptr noundef nonnull align 8 dereferenceable(20) %28)
  %30 = load ptr, ptr %5, align 8
  %31 = load ptr, ptr %30, align 8
  %32 = getelementptr inbounds ptr, ptr %31, i64 11
  %33 = load ptr, ptr %32, align 8
  %34 = call noundef ptr %33(ptr noundef nonnull align 8 dereferenceable(44) %30)
  %35 = call noundef i32 @_ZNK4Type4baseEv(ptr noundef nonnull align 8 dereferenceable(20) %34)
  %36 = icmp ne i32 %29, %35
  br i1 %36, label %37, label %38

37:                                               ; preds = %26
  store i1 false, ptr %3, align 1
  br label %50

38:                                               ; preds = %26
  %39 = getelementptr inbounds %class.TypePtr, ptr %6, i32 0, i32 2
  %40 = load ptr, ptr %39, align 8
  %41 = load ptr, ptr %5, align 8
  %42 = load ptr, ptr %41, align 8
  %43 = getelementptr inbounds ptr, ptr %42, i64 11
  %44 = load ptr, ptr %43, align 8
  %45 = call noundef ptr %44(ptr noundef nonnull align 8 dereferenceable(44) %41)
  %46 = load ptr, ptr %40, align 8
  %47 = getelementptr inbounds ptr, ptr %46, i64 0
  %48 = load ptr, ptr %47, align 8
  %49 = call noundef zeroext i1 %48(ptr noundef nonnull align 8 dereferenceable(44) %40, ptr noundef %45)
  store i1 %49, ptr %3, align 1
  br label %50

50:                                               ; preds = %38, %37, %17
  %51 = load i1, ptr %3, align 1
  ret i1 %51
}

; Function Attrs: mustprogress nounwind uwtable
define linkonce_odr hidden noundef i32 @_ZNK7TypePtr6offsetEv(ptr noundef nonnull align 8 dereferenceable(44) %0) #1 comdat align 2 {
  %2 = alloca ptr, align 8
  store ptr %0, ptr %2, align 8
  %3 = load ptr, ptr %2, align 8
  %4 = getelementptr inbounds %class.TypePtr, ptr %3, i32 0, i32 4
  %5 = load i32, ptr %4, align 4
  ret i32 %5
}

; Function Attrs: mustprogress nounwind uwtable
define linkonce_odr hidden noundef i32 @_ZNK7TypePtr3ptrEv(ptr noundef nonnull align 8 dereferenceable(44) %0) #1 comdat align 2 {
  %2 = alloca ptr, align 8
  store ptr %0, ptr %2, align 8
  %3 = load ptr, ptr %2, align 8
  %4 = getelementptr inbounds %class.TypePtr, ptr %3, i32 0, i32 5
  %5 = load i32, ptr %4, align 8
  ret i32 %5
}

; Function Attrs: mustprogress nounwind uwtable
define hidden noundef zeroext i1 @_ZNK7TypePtr2eqEPK4Type(ptr noundef nonnull align 8 dereferenceable(44) %0, ptr noundef %1) unnamed_addr #1 align 2 {
  %3 = alloca ptr, align 8
  %4 = alloca ptr, align 8
  %5 = alloca ptr, align 8
  store ptr %0, ptr %3, align 8
  store ptr %1, ptr %4, align 8
  %6 = load ptr, ptr %3, align 8
  %7 = load ptr, ptr %4, align 8
  store ptr %7, ptr %5, align 8
  %8 = getelementptr inbounds %class.TypePtr, ptr %6, i32 0, i32 5
  %9 = load i32, ptr %8, align 8
  %10 = load ptr, ptr %5, align 8
  %11 = call noundef i32 @_ZNK7TypePtr3ptrEv(ptr noundef nonnull align 8 dereferenceable(44) %10)
  %12 = icmp eq i32 %9, %11
  br i1 %12, label %13, label %29

13:                                               ; preds = %2
  %14 = getelementptr inbounds %class.TypePtr, ptr %6, i32 0, i32 4
  %15 = load i32, ptr %14, align 4
  %16 = load ptr, ptr %5, align 8
  %17 = call noundef i32 @_ZNK7TypePtr6offsetEv(ptr noundef nonnull align 8 dereferenceable(44) %16)
  %18 = icmp eq i32 %15, %17
  br i1 %18, label %19, label %29

19:                                               ; preds = %13
  %20 = load ptr, ptr %5, align 8
  %21 = call noundef zeroext i1 @_ZNK7TypePtr14eq_speculativeEPKS_(ptr noundef nonnull align 8 dereferenceable(44) %6, ptr noundef %20)
  br i1 %21, label %22, label %29

22:                                               ; preds = %19
  %23 = getelementptr inbounds %class.TypePtr, ptr %6, i32 0, i32 3
  %24 = load i32, ptr %23, align 8
  %25 = load ptr, ptr %5, align 8
  %26 = getelementptr inbounds %class.TypePtr, ptr %25, i32 0, i32 3
  %27 = load i32, ptr %26, align 8
  %28 = icmp eq i32 %24, %27
  br label %29

29:                                               ; preds = %22, %19, %13, %2
  %30 = phi i1 [ false, %19 ], [ false, %13 ], [ false, %2 ], [ %28, %22 ]
  ret i1 %30
}

; Function Attrs: mustprogress nounwind uwtable
define linkonce_odr hidden noundef ptr @_ZNK4Type11is_klassptrEv(ptr noundef nonnull align 8 dereferenceable(20) %0) #1 comdat align 2 {
  %2 = alloca ptr, align 8
  store ptr %0, ptr %2, align 8
  %3 = load ptr, ptr %2, align 8
  ret ptr %3
}

; Function Attrs: mustprogress nounwind uwtable
define hidden noundef zeroext i1 @_ZNK12TypeKlassPtr2eqEPK4Type(ptr noundef nonnull align 8 dereferenceable(64) %0, ptr noundef %1) unnamed_addr #1 align 2 {
  %3 = alloca ptr, align 8
  %4 = alloca ptr, align 8
  %5 = alloca ptr, align 8
  store ptr %0, ptr %3, align 8
  store ptr %1, ptr %4, align 8
  %6 = load ptr, ptr %3, align 8
  %7 = load ptr, ptr %4, align 8
  %8 = call noundef ptr @_ZNK4Type11is_klassptrEv(ptr noundef nonnull align 8 dereferenceable(20) %7)
  store ptr %8, ptr %5, align 8
  %9 = getelementptr inbounds %class.TypeKlassPtr, ptr %6, i32 0, i32 2
  %10 = load ptr, ptr %9, align 8
  %11 = load ptr, ptr %5, align 8
  %12 = getelementptr inbounds %class.TypeKlassPtr, ptr %11, i32 0, i32 2
  %13 = load ptr, ptr %12, align 8
  %14 = load ptr, ptr %10, align 8
  %15 = getelementptr inbounds ptr, ptr %14, i64 0
  %16 = load ptr, ptr %15, align 8
  %17 = call noundef zeroext i1 %16(ptr noundef nonnull align 8 dereferenceable(64) %10, ptr noundef %13)
  br i1 %17, label %18, label %21

18:                                               ; preds = %2
  %19 = load ptr, ptr %5, align 8
  %20 = call noundef zeroext i1 @_ZNK7TypePtr2eqEPK4Type(ptr noundef nonnull align 8 dereferenceable(44) %6, ptr noundef %19)
  br label %21

21:                                               ; preds = %18, %2
  %22 = phi i1 [ false, %2 ], [ %20, %18 ]
  ret i1 %22
}

; Function Attrs: mustprogress nounwind uwtable
define linkonce_odr hidden noundef ptr @_ZNK4Type14is_aryklassptrEv(ptr noundef nonnull align 8 dereferenceable(20) %0) #1 comdat align 2 {
  %2 = alloca ptr, align 8
  store ptr %0, ptr %2, align 8
  %3 = load ptr, ptr %2, align 8
  ret ptr %3
}

; Function Attrs: mustprogress nounwind uwtable
define hidden noundef zeroext i1 @_ZNK15TypeAryKlassPtr2eqEPK4Type(ptr noundef nonnull align 8 dereferenceable(72) %0, ptr noundef %1) unnamed_addr #1 align 2 {
  %3 = alloca ptr, align 8
  %4 = alloca ptr, align 8
  %5 = alloca ptr, align 8
  store ptr %0, ptr %3, align 8
  store ptr %1, ptr %4, align 8
  %6 = load ptr, ptr %3, align 8
  %7 = load ptr, ptr %4, align 8
  %8 = call noundef ptr @_ZNK4Type14is_aryklassptrEv(ptr noundef nonnull align 8 dereferenceable(20) %7)
  store ptr %8, ptr %5, align 8
  %9 = getelementptr inbounds %class.TypeAryKlassPtr, ptr %6, i32 0, i32 1
  %10 = load ptr, ptr %9, align 8
  %11 = load ptr, ptr %5, align 8
  %12 = getelementptr inbounds %class.TypeAryKlassPtr, ptr %11, i32 0, i32 1
  %13 = load ptr, ptr %12, align 8
  %14 = icmp eq ptr %10, %13
  br i1 %14, label %15, label %18

15:                                               ; preds = %2
  %16 = load ptr, ptr %5, align 8
  %17 = call noundef zeroext i1 @_ZNK12TypeKlassPtr2eqEPK4Type(ptr noundef nonnull align 8 dereferenceable(64) %6, ptr noundef %16)
  br label %18

18:                                               ; preds = %15, %2
  %19 = phi i1 [ false, %2 ], [ %17, %15 ]
  ret i1 %19
}