; Function Attrs: mustprogress nounwind uwtable
define hidden noundef zeroext i1 @_ZNK15TypeAryKlassPtr2eqEPK4Type(ptr nocapture noundef nonnull readonly align 8 dereferenceable(72) %0, ptr noundef %1) unnamed_addr #0 align 2 {
  %3 = getelementptr inbounds i8, ptr %0, i64 64
  %4 = load ptr, ptr %3, align 8
  %5 = getelementptr inbounds i8, ptr %1, i64 64
  %6 = load ptr, ptr %5, align 8
  %7 = icmp eq ptr %4, %6
  br i1 %7, label %8, label %_ZNK12TypeKlassPtr2eqEPK4Type.exit

8:                                                ; preds = %2
  %9 = getelementptr inbounds i8, ptr %0, i64 56
  %10 = load ptr, ptr %9, align 8
  %11 = getelementptr inbounds i8, ptr %1, i64 56
  %12 = load ptr, ptr %11, align 8
  %13 = load ptr, ptr %10, align 8
  %14 = load ptr, ptr %13, align 8
  %15 = tail call noundef zeroext i1 %14(ptr noundef nonnull align 8 dereferenceable(64) %10, ptr noundef %12) #17
  br i1 %15, label %16, label %_ZNK12TypeKlassPtr2eqEPK4Type.exit

16:                                               ; preds = %8
  %17 = getelementptr inbounds i8, ptr %0, i64 40
  %18 = load i32, ptr %17, align 8
  %19 = getelementptr inbounds i8, ptr %1, i64 40
  %20 = load i32, ptr %19, align 8
  %21 = icmp eq i32 %18, %20
  br i1 %21, label %22, label %_ZNK12TypeKlassPtr2eqEPK4Type.exit

22:                                               ; preds = %16
  %23 = getelementptr inbounds i8, ptr %0, i64 36
  %24 = load i32, ptr %23, align 4
  %25 = getelementptr inbounds i8, ptr %1, i64 36
  %26 = load i32, ptr %25, align 4
  %27 = icmp eq i32 %24, %26
  br i1 %27, label %28, label %_ZNK12TypeKlassPtr2eqEPK4Type.exit

28:                                               ; preds = %22
  %29 = getelementptr inbounds i8, ptr %0, i64 24
  %30 = load ptr, ptr %29, align 8
  %31 = icmp eq ptr %30, null
  br i1 %31, label %38, label %32

32:                                               ; preds = %28
  %33 = load ptr, ptr %1, align 8
  %34 = getelementptr inbounds i8, ptr %33, i64 88
  %35 = load ptr, ptr %34, align 8
  %36 = tail call noundef ptr %35(ptr noundef nonnull align 8 dereferenceable(44) %1) #17
  %37 = icmp eq ptr %36, null
  %.pre.i.i.i = load ptr, ptr %29, align 8
  br i1 %37, label %38, label %45

38:                                               ; preds = %32, %28
  %39 = phi ptr [ %.pre.i.i.i, %32 ], [ null, %28 ]
  %40 = load ptr, ptr %1, align 8
  %41 = getelementptr inbounds i8, ptr %40, i64 88
  %42 = load ptr, ptr %41, align 8
  %43 = tail call noundef ptr %42(ptr noundef nonnull align 8 dereferenceable(44) %1) #17
  %44 = icmp eq ptr %39, %43
  br i1 %44, label %62, label %_ZNK12TypeKlassPtr2eqEPK4Type.exit

45:                                               ; preds = %32
  %46 = getelementptr inbounds i8, ptr %.pre.i.i.i, i64 16
  %47 = load i32, ptr %46, align 8
  %48 = load ptr, ptr %1, align 8
  %49 = getelementptr inbounds i8, ptr %48, i64 88
  %50 = load ptr, ptr %49, align 8
  %51 = tail call noundef ptr %50(ptr noundef nonnull align 8 dereferenceable(44) %1) #17
  %52 = getelementptr inbounds i8, ptr %51, i64 16
  %53 = load i32, ptr %52, align 8
  %.not.i.i.i = icmp eq i32 %47, %53
  br i1 %.not.i.i.i, label %_ZNK7TypePtr14eq_speculativeEPKS_.exit.i.i, label %_ZNK12TypeKlassPtr2eqEPK4Type.exit

_ZNK7TypePtr14eq_speculativeEPKS_.exit.i.i:       ; preds = %45
  %54 = load ptr, ptr %29, align 8
  %55 = load ptr, ptr %1, align 8
  %56 = getelementptr inbounds i8, ptr %55, i64 88
  %57 = load ptr, ptr %56, align 8
  %58 = tail call noundef ptr %57(ptr noundef nonnull align 8 dereferenceable(44) %1) #17
  %59 = load ptr, ptr %54, align 8
  %60 = load ptr, ptr %59, align 8
  %61 = tail call noundef zeroext i1 %60(ptr noundef nonnull align 8 dereferenceable(44) %54, ptr noundef %58) #17
  br i1 %61, label %62, label %_ZNK12TypeKlassPtr2eqEPK4Type.exit

62:                                               ; preds = %_ZNK7TypePtr14eq_speculativeEPKS_.exit.i.i, %38
  %63 = getelementptr inbounds i8, ptr %0, i64 32
  %64 = load i32, ptr %63, align 8
  %65 = getelementptr inbounds i8, ptr %1, i64 32
  %66 = load i32, ptr %65, align 8
  %67 = icmp eq i32 %64, %66
  br label %_ZNK12TypeKlassPtr2eqEPK4Type.exit

_ZNK12TypeKlassPtr2eqEPK4Type.exit:               ; preds = %62, %_ZNK7TypePtr14eq_speculativeEPKS_.exit.i.i, %45, %38, %22, %16, %8, %2
  %68 = phi i1 [ false, %2 ], [ false, %8 ], [ false, %_ZNK7TypePtr14eq_speculativeEPKS_.exit.i.i ], [ false, %22 ], [ false, %16 ], [ %67, %62 ], [ false, %38 ], [ false, %45 ]
  ret i1 %68
}